; Function Attrs: mustprogress nounwind uwtable
define noundef zeroext i1 @_ZN5boost11this_thread22interruption_requestedEv() local_unnamed_addr #5 personality ptr @__gxx_personality_v0 {
  %1 = alloca %"class.boost::lock_error", align 8
  %2 = tail call noundef zeroext i1 @_ZN5boost13thread_detail17enter_once_regionERNS_9once_flagE(ptr noundef nonnull align 4 dereferenceable(4) @_ZN5boost6detail12_GLOBAL__N_128current_thread_tls_init_flagE) #32
  br i1 %2, label %_ZN5boost6detail6invokeIPFvvEJEEEDTclclsr5boostE7forwardIT_Efp_Espclsr5boostE7forwardIT0_Efp0_EEEOS4_DpOS5_.exit.i.i, label %4

_ZN5boost6detail6invokeIPFvvEJEEEDTclclsr5boostE7forwardIT_Efp_Espclsr5boostE7forwardIT0_Efp0_EEEOS4_DpOS5_.exit.i.i: ; preds = %0
  %3 = tail call i32 @pthread_key_create(ptr noundef nonnull @_ZN5boost6detail12_GLOBAL__N_122current_thread_tls_keyE, ptr noundef nonnull @_ZN5boost6detail12_GLOBAL__N_114tls_destructorEPv) #32
  tail call void @_ZN5boost13thread_detail18commit_once_regionERNS_9once_flagE(ptr noundef nonnull align 4 dereferenceable(4) @_ZN5boost6detail12_GLOBAL__N_128current_thread_tls_init_flagE) #32
  br label %4

4:                                                ; preds = %_ZN5boost6detail6invokeIPFvvEJEEEDTclclsr5boostE7forwardIT_Efp_Espclsr5boostE7forwardIT0_Efp0_EEEOS4_DpOS5_.exit.i.i, %0
  %5 = load i32, ptr @_ZN5boost6detail12_GLOBAL__N_122current_thread_tls_keyE, align 4, !tbaa !54
  %6 = tail call noundef ptr @pthread_getspecific(i32 noundef %5) #32
  %.not = icmp eq ptr %6, null
  br i1 %.not, label %_ZN5boost10lock_guardINS_5mutexEED2Ev.exit, label %7

7:                                                ; preds = %4
  %8 = getelementptr inbounds nuw i8, ptr %6, i64 48
  br label %9

9:                                                ; preds = %9, %7
  %10 = tail call i32 @pthread_mutex_lock(ptr noundef nonnull align 8 dereferenceable(40) %8) #32
  switch i32 %10, label %11 [
    i32 4, label %9
    i32 0, label %_ZN5boost10lock_guardINS_5mutexEEC2ERS1_.exit
  ]

11:                                               ; preds = %9
  call void @llvm.lifetime.start.p0(i64 40, ptr nonnull %1) #32
  invoke void @_ZN5boost10lock_errorC2EiPKc(ptr noundef nonnull align 8 dereferenceable(40) %1, i32 noundef %10, ptr noundef nonnull @.str.27)
          to label %.noexc unwind label %21

.noexc:                                           ; preds = %11
  invoke void @_ZN5boost15throw_exceptionINS_10lock_errorEEEvRKT_(ptr noundef nonnull align 8 dereferenceable(40) %1) #33
          to label %12 unwind label %13

12:                                               ; preds = %.noexc
  unreachable

13:                                               ; preds = %.noexc
  %14 = landingpad { ptr, i32 }
          catch ptr null
  call void @_ZNSt13runtime_errorD2Ev(ptr noundef nonnull align 8 dereferenceable(40) %1) #32
  call void @llvm.lifetime.end.p0(i64 40, ptr nonnull %1) #32
  br label %.body

_ZN5boost10lock_guardINS_5mutexEEC2ERS1_.exit:    ; preds = %9
  %15 = getelementptr inbounds nuw i8, ptr %6, i64 305
  %16 = load i8, ptr %15, align 1, !tbaa !146, !range !51, !noundef !52
  br label %17

17:                                               ; preds = %17, %_ZN5boost10lock_guardINS_5mutexEEC2ERS1_.exit
  %18 = tail call i32 @pthread_mutex_unlock(ptr noundef nonnull align 8 dereferenceable(40) %8) #32
  %19 = icmp eq i32 %18, 4
  br i1 %19, label %17, label %_ZN5boost10lock_guardINS_5mutexEED2Ev.exit.loopexit, !llvm.loop !22

_ZN5boost10lock_guardINS_5mutexEED2Ev.exit.loopexit: ; preds = %17
  %20 = trunc nuw i8 %16 to i1
  br label %_ZN5boost10lock_guardINS_5mutexEED2Ev.exit

_ZN5boost10lock_guardINS_5mutexEED2Ev.exit:       ; preds = %_ZN5boost10lock_guardINS_5mutexEED2Ev.exit.loopexit, %4
  %.0 = phi i1 [ false, %4 ], [ %20, %_ZN5boost10lock_guardINS_5mutexEED2Ev.exit.loopexit ]
  ret i1 %.0

21:                                               ; preds = %11
  %22 = landingpad { ptr, i32 }
          catch ptr null
  br label %.body

.body:                                            ; preds = %13, %21
  %eh.lpad-body = phi { ptr, i32 } [ %22, %21 ], [ %14, %13 ]
  %23 = extractvalue { ptr, i32 } %eh.lpad-body, 0
  call void @__clang_call_terminate(ptr %23) #34
  unreachable
}